(dp1
S'CTT'
p2
S'LEU'
p3
sS'ATG'
p4
S'MET'
p5
sS'AAG'
p6
S'LYS'
p7
sS'AAA'
p8
S'LYS'
p9
sS'ATC'
p10
S'ILE'
p11
sS'AAC'
p12
S'ASN'
p13
sS'ATA'
p14
S'ILE'
p15
sS'AGG'
p16
S'ARG'
p17
sS'CCT'
p18
S'PRO'
p19
sS'ACT'
p20
S'THR'
p21
sS'AGC'
p22
S'SER'
p23
sS'ACA'
p24
S'THR'
p25
sS'AGA'
p26
S'ARG'
p27
sS'CAT'
p28
S'HIS'
p29
sS'AAT'
p30
S'ASN'
p31
sS'ATT'
p32
S'ILE'
p33
sS'CTG'
p34
S'LEU'
p35
sS'CTA'
p36
S'LEU'
p37
sS'CTC'
p38
S'LEU'
p39
sS'CAC'
p40
S'HIS'
p41
sS'ACG'
p42
S'THR'
p43
sS'CAA'
p44
S'GLN'
p45
sS'AGT'
p46
S'SER'
p47
sS'CAG'
p48
S'GLN'
p49
sS'CCG'
p50
S'PRO'
p51
sS'CCC'
p52
S'PRO'
p53
sS'TAG'
p54
S'TER'
p55
sS'TAT'
p56
S'TYR'
p57
sS'GGT'
p58
S'GLY'
p59
sS'TGT'
p60
S'CYS'
p61
sS'CGA'
p62
S'ARG'
p63
sS'CCA'
p64
S'PRO'
p65
sS'CGC'
p66
S'ARG'
p67
sS'GAT'
p68
S'ASP'
p69
sS'CGG'
p70
S'ARG'
p71
sS'TTT'
p72
S'PHE'
p73
sS'TGC'
p74
S'CYS'
p75
sS'GGG'
p76
S'GLY'
p77
sS'TGA'
p78
S'TER'
p79
sS'GGA'
p80
S'GLY'
p81
sS'TAA'
p82
S'TER'
p83
sS'GGC'
p84
S'GLY'
p85
sS'TAC'
p86
S'TYR'
p87
sS'GAG'
p88
S'GLU'
p89
sS'TCG'
p90
S'SER'
p91
sS'TTA'
p92
S'LEU'
p93
sS'GAC'
p94
S'ASP'
p95
sS'CGT'
p96
S'ARG'
p97
sS'GAA'
p98
S'GLU'
p99
sS'TCA'
p100
S'SER'
p101
sS'GCA'
p102
S'ALA'
p103
sS'GTA'
p104
S'VAL'
p105
sS'GCC'
p106
S'ALA'
p107
sS'GTC'
p108
S'VAL'
p109
sS'GCG'
p110
S'ALA'
p111
sS'GTG'
p112
S'VAL'
p113
sS'TTC'
p114
S'PHE'
p115
sS'GTT'
p116
S'VAL'
p117
sS'GCT'
p118
S'ALA'
p119
sS'ACC'
p120
S'THR'
p121
sS'TTG'
p122
S'LEU'
p123
sS'TCC'
p124
S'SER'
p125
sS'TGG'
p126
S'TRP'
p127
sS'TCT'
p128
S'SER'
p129
s.